; Function Attrs: mustprogress nofree norecurse nosync nounwind willreturn memory(argmem: readwrite) uwtable
define void @ossl_quic_reactor_set_poll_r(ptr noundef captures(none) initializes((0, 4)) %0, ptr noundef readonly captures(address_is_null) %1) local_unnamed_addr #3 {
  %3 = icmp eq ptr %1, null
  br i1 %3, label %4, label %5

4:                                                ; preds = %2
  store i32 0, ptr %0, align 8, !tbaa !3
  br label %8

5:                                                ; preds = %2
  tail call void @llvm.memcpy.p0.p0.i64(ptr noundef nonnull align 8 dereferenceable(16) %0, ptr noundef nonnull align 8 dereferenceable(16) %1, i64 16, i1 false), !tbaa.struct !22
  %.pre = load i32, ptr %0, align 8, !tbaa !25
  %6 = icmp eq i32 %.pre, 1
  %7 = select i1 %6, i8 4, i8 0
  br label %8

8:                                                ; preds = %5, %4
  %9 = phi i8 [ %7, %5 ], [ 0, %4 ]
  %10 = getelementptr inbounds nuw i8, ptr %0, i64 88
  %11 = load i8, ptr %10, align 8
  %12 = and i8 %11, -5
  %13 = or disjoint i8 %12, %9
  store i8 %13, ptr %10, align 8
  ret void
}